; Function Attrs: mustprogress nounwind uwtable
define hidden void @_ZN16JvmtiVTSuspender29register_all_vthreads_suspendEv() local_unnamed_addr #0 align 2 {
  %1 = load ptr, ptr @JvmtiVTMSTransition_lock, align 8
  %.not.i.i = icmp eq ptr %1, null
  br i1 %.not.i.i, label %_ZN13MonitorLockerC2EP7MonitorN5Mutex18SafepointCheckFlagE.exit.thread, label %4

_ZN13MonitorLockerC2EP7MonitorN5Mutex18SafepointCheckFlagE.exit.thread: ; preds = %0
  store i32 2, ptr @_ZN16JvmtiVTSuspender8_SR_modeE, align 4
  %2 = load ptr, ptr @_ZN16JvmtiVTSuspender15_suspended_listE, align 8
  store i32 0, ptr %2, align 4
  %3 = load ptr, ptr @_ZN16JvmtiVTSuspender19_not_suspended_listE, align 8
  store i32 0, ptr %3, align 4
  br label %_ZN13MonitorLockerD2Ev.exit

4:                                                ; preds = %0
  tail call void @_ZN5Mutex4lockEv(ptr noundef nonnull align 8 dereferenceable(104) %1) #13
  store i32 2, ptr @_ZN16JvmtiVTSuspender8_SR_modeE, align 4
  %5 = load ptr, ptr @_ZN16JvmtiVTSuspender15_suspended_listE, align 8
  store i32 0, ptr %5, align 4
  %6 = load ptr, ptr @_ZN16JvmtiVTSuspender19_not_suspended_listE, align 8
  store i32 0, ptr %6, align 4
  tail call void @_ZN5Mutex6unlockEv(ptr noundef nonnull align 8 dereferenceable(104) %1) #13
  br label %_ZN13MonitorLockerD2Ev.exit

_ZN13MonitorLockerD2Ev.exit:                      ; preds = %_ZN13MonitorLockerC2EP7MonitorN5Mutex18SafepointCheckFlagE.exit.thread, %4
  ret void
}